target datalayout = "e-m:e-p270:32:32-p271:32:32-p272:64:64-i64:64-i128:128-f80:128-n8:16:32:64-S128"
target triple = "x86_64-pc-linux-gnu"

%"class.std::__cxx11::basic_string" = type { %"struct.std::__cxx11::basic_string<char>::_Alloc_hider", i64, %union.anon }
%"struct.std::__cxx11::basic_string<char>::_Alloc_hider" = type { ptr }
%union.anon = type { i64, [8 x i8] }
%"class.Imf_3_4::IDManifest" = type { %"class.std::vector" }
%"class.std::vector" = type { %"struct.std::_Vector_base" }
%"struct.std::_Vector_base" = type { %"struct.std::_Vector_base<Imf_3_4::IDManifest::ChannelGroupManifest, std::allocator<Imf_3_4::IDManifest::ChannelGroupManifest>>::_Vector_impl" }
%"struct.std::_Vector_base<Imf_3_4::IDManifest::ChannelGroupManifest, std::allocator<Imf_3_4::IDManifest::ChannelGroupManifest>>::_Vector_impl" = type { %"struct.std::_Vector_base<Imf_3_4::IDManifest::ChannelGroupManifest, std::allocator<Imf_3_4::IDManifest::ChannelGroupManifest>>::_Vector_impl_data" }
%"struct.std::_Vector_base<Imf_3_4::IDManifest::ChannelGroupManifest, std::allocator<Imf_3_4::IDManifest::ChannelGroupManifest>>::_Vector_impl_data" = type { ptr, ptr, ptr }
%"class.std::vector.3" = type { %"struct.std::_Vector_base.4" }
%"struct.std::_Vector_base.4" = type { %"struct.std::_Vector_base<std::__cxx11::basic_string<char>, std::allocator<std::__cxx11::basic_string<char>>>::_Vector_impl" }
%"struct.std::_Vector_base<std::__cxx11::basic_string<char>, std::allocator<std::__cxx11::basic_string<char>>>::_Vector_impl" = type { %"struct.std::_Vector_base<std::__cxx11::basic_string<char>, std::allocator<std::__cxx11::basic_string<char>>>::_Vector_impl_data" }
%"struct.std::_Vector_base<std::__cxx11::basic_string<char>, std::allocator<std::__cxx11::basic_string<char>>>::_Vector_impl_data" = type { ptr, ptr, ptr }
%"struct.std::_Rb_tree_iterator" = type { ptr }
%"class.Imf_3_4::IDManifest::ChannelGroupManifest" = type <{ %"class.std::set", %"class.std::vector.3", i32, [4 x i8], %"class.std::__cxx11::basic_string", %"class.std::__cxx11::basic_string", %"class.std::map", %"struct.std::_Rb_tree_iterator", i8, [7 x i8] }>
%"class.std::set" = type { %"class.std::_Rb_tree" }
%"class.std::_Rb_tree" = type { %"struct.std::_Rb_tree<std::__cxx11::basic_string<char>, std::__cxx11::basic_string<char>, std::_Identity<std::__cxx11::basic_string<char>>, std::less<std::__cxx11::basic_string<char>>>::_Rb_tree_impl" }
%"struct.std::_Rb_tree<std::__cxx11::basic_string<char>, std::__cxx11::basic_string<char>, std::_Identity<std::__cxx11::basic_string<char>>, std::less<std::__cxx11::basic_string<char>>>::_Rb_tree_impl" = type { [8 x i8], %"struct.std::_Rb_tree_header" }
%"struct.std::_Rb_tree_header" = type { %"struct.std::_Rb_tree_node_base", i64 }
%"struct.std::_Rb_tree_node_base" = type { i32, ptr, ptr, ptr }
%"class.std::map" = type { %"class.std::_Rb_tree.18" }
%"class.std::_Rb_tree.18" = type { %"struct.std::_Rb_tree<unsigned long, std::pair<const unsigned long, std::vector<std::__cxx11::basic_string<char>>>, std::_Select1st<std::pair<const unsigned long, std::vector<std::__cxx11::basic_string<char>>>>, std::less<unsigned long>>::_Rb_tree_impl" }
%"struct.std::_Rb_tree<unsigned long, std::pair<const unsigned long, std::vector<std::__cxx11::basic_string<char>>>, std::_Select1st<std::pair<const unsigned long, std::vector<std::__cxx11::basic_string<char>>>>, std::less<unsigned long>>::_Rb_tree_impl" = type { [8 x i8], %"struct.std::_Rb_tree_header" }
%"class.__gnu_cxx::__normal_iterator.72" = type { ptr }

; Function Attrs: mustprogress uwtable
define linkonce_odr hidden noundef zeroext i1 @_ZNSt7__equalILb0EE5equalIPKN7Imf_3_410IDManifest20ChannelGroupManifestES6_EEbT_S7_T0_(ptr noundef %0, ptr noundef %1, ptr noundef %2) #6 comdat align 2 {
  %4 = alloca i1, align 1
  %5 = alloca ptr, align 8
  %6 = alloca ptr, align 8
  %7 = alloca ptr, align 8
  store ptr %0, ptr %5, align 8, !tbaa !25
  store ptr %1, ptr %6, align 8, !tbaa !25
  store ptr %2, ptr %7, align 8, !tbaa !25
  br label %8

8:                                                ; preds = %18, %3
  %9 = load ptr, ptr %5, align 8, !tbaa !25
  %10 = load ptr, ptr %6, align 8, !tbaa !25
  %11 = icmp ne ptr %9, %10
  br i1 %11, label %12, label %23

12:                                               ; preds = %8
  %13 = load ptr, ptr %5, align 8, !tbaa !25
  %14 = load ptr, ptr %7, align 8, !tbaa !25
  %15 = call noundef zeroext i1 @_ZNK7Imf_3_410IDManifest20ChannelGroupManifesteqERKS1_(ptr noundef nonnull align 8 dereferenceable(201) %13, ptr noundef nonnull align 8 dereferenceable(201) %14)
  br i1 %15, label %17, label %16

16:                                               ; preds = %12
  store i1 false, ptr %4, align 1
  br label %24

17:                                               ; preds = %12
  br label %18

18:                                               ; preds = %17
  %19 = load ptr, ptr %5, align 8, !tbaa !25
  %20 = getelementptr inbounds nuw %"class.Imf_3_4::IDManifest::ChannelGroupManifest", ptr %19, i32 1
  store ptr %20, ptr %5, align 8, !tbaa !25
  %21 = load ptr, ptr %7, align 8, !tbaa !25
  %22 = getelementptr inbounds nuw %"class.Imf_3_4::IDManifest::ChannelGroupManifest", ptr %21, i32 1
  store ptr %22, ptr %7, align 8, !tbaa !25
  br label %8, !llvm.loop !463

23:                                               ; preds = %8
  store i1 true, ptr %4, align 1
  br label %24

24:                                               ; preds = %23, %16
  %25 = load i1, ptr %4, align 1
  ret i1 %25
}

; Function Attrs: mustprogress nounwind uwtable
define linkonce_odr hidden noundef nonnull align 8 dereferenceable(8) ptr @_ZNK9__gnu_cxx17__normal_iteratorIPKN7Imf_3_410IDManifest20ChannelGroupManifestESt6vectorIS3_SaIS3_EEE4baseEv(ptr noundef nonnull align 8 dereferenceable(8) %0) #5 comdat align 2 {
  %2 = alloca ptr, align 8
  store ptr %0, ptr %2, align 8, !tbaa !464
  %3 = load ptr, ptr %2, align 8
  %4 = getelementptr inbounds nuw %"class.__gnu_cxx::__normal_iterator.72", ptr %3, i32 0, i32 0
  ret ptr %4
}

; Function Attrs: inlinehint mustprogress uwtable
define linkonce_odr noundef zeroext i1 @_ZSt12__equal_aux1IPKN7Imf_3_410IDManifest20ChannelGroupManifestES4_EbT_S5_T0_(ptr noundef %0, ptr noundef %1, ptr noundef %2) #7 comdat {
  %4 = alloca ptr, align 8
  %5 = alloca ptr, align 8
  %6 = alloca ptr, align 8
  %7 = alloca i8, align 1
  store ptr %0, ptr %4, align 8, !tbaa !25
  store ptr %1, ptr %5, align 8, !tbaa !25
  store ptr %2, ptr %6, align 8, !tbaa !25
  call void @llvm.lifetime.start.p0(i64 1, ptr %7) #3
  store i8 0, ptr %7, align 1, !tbaa !57
  %8 = load ptr, ptr %4, align 8, !tbaa !25
  %9 = load ptr, ptr %5, align 8, !tbaa !25
  %10 = load ptr, ptr %6, align 8, !tbaa !25
  %11 = call noundef zeroext i1 @_ZNSt7__equalILb0EE5equalIPKN7Imf_3_410IDManifest20ChannelGroupManifestES6_EEbT_S7_T0_(ptr noundef %8, ptr noundef %9, ptr noundef %10)
  call void @llvm.lifetime.end.p0(i64 1, ptr %7) #3
  ret i1 %11
}

; Function Attrs: mustprogress nounwind uwtable
define linkonce_odr noundef ptr @_ZSt12__niter_baseIPKN7Imf_3_410IDManifest20ChannelGroupManifestESt6vectorIS2_SaIS2_EEET_N9__gnu_cxx17__normal_iteratorIS8_T0_EE(ptr %0) #5 comdat {
  %2 = alloca %"class.__gnu_cxx::__normal_iterator.72", align 8
  %3 = getelementptr inbounds nuw %"class.__gnu_cxx::__normal_iterator.72", ptr %2, i32 0, i32 0
  store ptr %0, ptr %3, align 8
  %4 = call noundef nonnull align 8 dereferenceable(8) ptr @_ZNK9__gnu_cxx17__normal_iteratorIPKN7Imf_3_410IDManifest20ChannelGroupManifestESt6vectorIS3_SaIS3_EEE4baseEv(ptr noundef nonnull align 8 dereferenceable(8) %2) #3
  %5 = load ptr, ptr %4, align 8, !tbaa !25
  ret ptr %5
}

; Function Attrs: inlinehint mustprogress uwtable
define linkonce_odr noundef zeroext i1 @_ZSt11__equal_auxIN9__gnu_cxx17__normal_iteratorIPKN7Imf_3_410IDManifest20ChannelGroupManifestESt6vectorIS4_SaIS4_EEEESA_EbT_SB_T0_(ptr %0, ptr %1, ptr %2) #7 comdat {
  %4 = alloca %"class.__gnu_cxx::__normal_iterator.72", align 8
  %5 = alloca %"class.__gnu_cxx::__normal_iterator.72", align 8
  %6 = alloca %"class.__gnu_cxx::__normal_iterator.72", align 8
  %7 = alloca %"class.__gnu_cxx::__normal_iterator.72", align 8
  %8 = alloca %"class.__gnu_cxx::__normal_iterator.72", align 8
  %9 = alloca %"class.__gnu_cxx::__normal_iterator.72", align 8
  %10 = getelementptr inbounds nuw %"class.__gnu_cxx::__normal_iterator.72", ptr %4, i32 0, i32 0
  store ptr %0, ptr %10, align 8
  %11 = getelementptr inbounds nuw %"class.__gnu_cxx::__normal_iterator.72", ptr %5, i32 0, i32 0
  store ptr %1, ptr %11, align 8
  %12 = getelementptr inbounds nuw %"class.__gnu_cxx::__normal_iterator.72", ptr %6, i32 0, i32 0
  store ptr %2, ptr %12, align 8
  call void @llvm.memcpy.p0.p0.i64(ptr align 8 %7, ptr align 8 %4, i64 8, i1 false), !tbaa.struct !462
  %13 = getelementptr inbounds nuw %"class.__gnu_cxx::__normal_iterator.72", ptr %7, i32 0, i32 0
  %14 = load ptr, ptr %13, align 8
  %15 = call noundef ptr @_ZSt12__niter_baseIPKN7Imf_3_410IDManifest20ChannelGroupManifestESt6vectorIS2_SaIS2_EEET_N9__gnu_cxx17__normal_iteratorIS8_T0_EE(ptr %14) #3
  call void @llvm.memcpy.p0.p0.i64(ptr align 8 %8, ptr align 8 %5, i64 8, i1 false), !tbaa.struct !462
  %16 = getelementptr inbounds nuw %"class.__gnu_cxx::__normal_iterator.72", ptr %8, i32 0, i32 0
  %17 = load ptr, ptr %16, align 8
  %18 = call noundef ptr @_ZSt12__niter_baseIPKN7Imf_3_410IDManifest20ChannelGroupManifestESt6vectorIS2_SaIS2_EEET_N9__gnu_cxx17__normal_iteratorIS8_T0_EE(ptr %17) #3
  call void @llvm.memcpy.p0.p0.i64(ptr align 8 %9, ptr align 8 %6, i64 8, i1 false), !tbaa.struct !462
  %19 = getelementptr inbounds nuw %"class.__gnu_cxx::__normal_iterator.72", ptr %9, i32 0, i32 0
  %20 = load ptr, ptr %19, align 8
  %21 = call noundef ptr @_ZSt12__niter_baseIPKN7Imf_3_410IDManifest20ChannelGroupManifestESt6vectorIS2_SaIS2_EEET_N9__gnu_cxx17__normal_iteratorIS8_T0_EE(ptr %20) #3
  %22 = call noundef zeroext i1 @_ZSt12__equal_aux1IPKN7Imf_3_410IDManifest20ChannelGroupManifestES4_EbT_S5_T0_(ptr noundef %15, ptr noundef %18, ptr noundef %21)
  ret i1 %22
}

; Function Attrs: mustprogress nounwind uwtable
define linkonce_odr hidden void @_ZN9__gnu_cxx17__normal_iteratorIPKN7Imf_3_410IDManifest20ChannelGroupManifestESt6vectorIS3_SaIS3_EEEC2ERKS5_(ptr noundef nonnull align 8 dereferenceable(8) %0, ptr noundef nonnull align 8 dereferenceable(8) %1) unnamed_addr #5 comdat align 2 {
  %3 = alloca ptr, align 8
  %4 = alloca ptr, align 8
  store ptr %0, ptr %3, align 8, !tbaa !464
  store ptr %1, ptr %4, align 8, !tbaa !466
  %5 = load ptr, ptr %3, align 8
  %6 = getelementptr inbounds nuw %"class.__gnu_cxx::__normal_iterator.72", ptr %5, i32 0, i32 0
  %7 = load ptr, ptr %4, align 8, !tbaa !466
  %8 = load ptr, ptr %7, align 8, !tbaa !25
  store ptr %8, ptr %6, align 8, !tbaa !468
  ret void
}

; Function Attrs: inlinehint mustprogress uwtable
define linkonce_odr noundef zeroext i1 @_ZSt5equalIN9__gnu_cxx17__normal_iteratorIPKN7Imf_3_410IDManifest20ChannelGroupManifestESt6vectorIS4_SaIS4_EEEESA_EbT_SB_T0_(ptr %0, ptr %1, ptr %2) #7 comdat {
  %4 = alloca %"class.__gnu_cxx::__normal_iterator.72", align 8
  %5 = alloca %"class.__gnu_cxx::__normal_iterator.72", align 8
  %6 = alloca %"class.__gnu_cxx::__normal_iterator.72", align 8
  %7 = alloca %"class.__gnu_cxx::__normal_iterator.72", align 8
  %8 = alloca %"class.__gnu_cxx::__normal_iterator.72", align 8
  %9 = alloca %"class.__gnu_cxx::__normal_iterator.72", align 8
  %10 = getelementptr inbounds nuw %"class.__gnu_cxx::__normal_iterator.72", ptr %4, i32 0, i32 0
  store ptr %0, ptr %10, align 8
  %11 = getelementptr inbounds nuw %"class.__gnu_cxx::__normal_iterator.72", ptr %5, i32 0, i32 0
  store ptr %1, ptr %11, align 8
  %12 = getelementptr inbounds nuw %"class.__gnu_cxx::__normal_iterator.72", ptr %6, i32 0, i32 0
  store ptr %2, ptr %12, align 8
  call void @llvm.memcpy.p0.p0.i64(ptr align 8 %7, ptr align 8 %4, i64 8, i1 false), !tbaa.struct !462
  call void @llvm.memcpy.p0.p0.i64(ptr align 8 %8, ptr align 8 %5, i64 8, i1 false), !tbaa.struct !462
  call void @llvm.memcpy.p0.p0.i64(ptr align 8 %9, ptr align 8 %6, i64 8, i1 false), !tbaa.struct !462
  %13 = getelementptr inbounds nuw %"class.__gnu_cxx::__normal_iterator.72", ptr %7, i32 0, i32 0
  %14 = load ptr, ptr %13, align 8
  %15 = getelementptr inbounds nuw %"class.__gnu_cxx::__normal_iterator.72", ptr %8, i32 0, i32 0
  %16 = load ptr, ptr %15, align 8
  %17 = getelementptr inbounds nuw %"class.__gnu_cxx::__normal_iterator.72", ptr %9, i32 0, i32 0
  %18 = load ptr, ptr %17, align 8
  %19 = call noundef zeroext i1 @_ZSt11__equal_auxIN9__gnu_cxx17__normal_iteratorIPKN7Imf_3_410IDManifest20ChannelGroupManifestESt6vectorIS4_SaIS4_EEEESA_EbT_SB_T0_(ptr %14, ptr %16, ptr %18)
  ret i1 %19
}

; Function Attrs: mustprogress nounwind uwtable
define linkonce_odr hidden ptr @_ZNKSt6vectorIN7Imf_3_410IDManifest20ChannelGroupManifestESaIS2_EE3endEv(ptr noundef nonnull align 8 dereferenceable(24) %0) #5 comdat align 2 {
  %2 = alloca %"class.__gnu_cxx::__normal_iterator.72", align 8
  %3 = alloca ptr, align 8
  store ptr %0, ptr %3, align 8, !tbaa !14
  %4 = load ptr, ptr %3, align 8
  %5 = getelementptr inbounds nuw %"struct.std::_Vector_base", ptr %4, i32 0, i32 0
  %6 = getelementptr inbounds nuw %"struct.std::_Vector_base<Imf_3_4::IDManifest::ChannelGroupManifest, std::allocator<Imf_3_4::IDManifest::ChannelGroupManifest>>::_Vector_impl_data", ptr %5, i32 0, i32 1
  call void @_ZN9__gnu_cxx17__normal_iteratorIPKN7Imf_3_410IDManifest20ChannelGroupManifestESt6vectorIS3_SaIS3_EEEC2ERKS5_(ptr noundef nonnull align 8 dereferenceable(8) %2, ptr noundef nonnull align 8 dereferenceable(8) %6) #3
  %7 = getelementptr inbounds nuw %"class.__gnu_cxx::__normal_iterator.72", ptr %2, i32 0, i32 0
  %8 = load ptr, ptr %7, align 8
  ret ptr %8
}

; Function Attrs: mustprogress nounwind uwtable
define linkonce_odr hidden ptr @_ZNKSt6vectorIN7Imf_3_410IDManifest20ChannelGroupManifestESaIS2_EE5beginEv(ptr noundef nonnull align 8 dereferenceable(24) %0) #5 comdat align 2 {
  %2 = alloca %"class.__gnu_cxx::__normal_iterator.72", align 8
  %3 = alloca ptr, align 8
  store ptr %0, ptr %3, align 8, !tbaa !14
  %4 = load ptr, ptr %3, align 8
  %5 = getelementptr inbounds nuw %"struct.std::_Vector_base", ptr %4, i32 0, i32 0
  %6 = getelementptr inbounds nuw %"struct.std::_Vector_base<Imf_3_4::IDManifest::ChannelGroupManifest, std::allocator<Imf_3_4::IDManifest::ChannelGroupManifest>>::_Vector_impl_data", ptr %5, i32 0, i32 0
  call void @_ZN9__gnu_cxx17__normal_iteratorIPKN7Imf_3_410IDManifest20ChannelGroupManifestESt6vectorIS3_SaIS3_EEEC2ERKS5_(ptr noundef nonnull align 8 dereferenceable(8) %2, ptr noundef nonnull align 8 dereferenceable(8) %6) #3
  %7 = getelementptr inbounds nuw %"class.__gnu_cxx::__normal_iterator.72", ptr %2, i32 0, i32 0
  %8 = load ptr, ptr %7, align 8
  ret ptr %8
}

; Function Attrs: mustprogress nounwind uwtable
define linkonce_odr hidden noundef i64 @_ZNKSt6vectorIN7Imf_3_410IDManifest20ChannelGroupManifestESaIS2_EE4sizeEv(ptr noundef nonnull align 8 dereferenceable(24) %0) #5 comdat align 2 {
  %2 = alloca ptr, align 8
  store ptr %0, ptr %2, align 8, !tbaa !14
  %3 = load ptr, ptr %2, align 8
  %4 = getelementptr inbounds nuw %"struct.std::_Vector_base", ptr %3, i32 0, i32 0
  %5 = getelementptr inbounds nuw %"struct.std::_Vector_base<Imf_3_4::IDManifest::ChannelGroupManifest, std::allocator<Imf_3_4::IDManifest::ChannelGroupManifest>>::_Vector_impl_data", ptr %4, i32 0, i32 1
  %6 = load ptr, ptr %5, align 8, !tbaa !41
  %7 = getelementptr inbounds nuw %"struct.std::_Vector_base", ptr %3, i32 0, i32 0
  %8 = getelementptr inbounds nuw %"struct.std::_Vector_base<Imf_3_4::IDManifest::ChannelGroupManifest, std::allocator<Imf_3_4::IDManifest::ChannelGroupManifest>>::_Vector_impl_data", ptr %7, i32 0, i32 0
  %9 = load ptr, ptr %8, align 8, !tbaa !39
  %10 = ptrtoint ptr %6 to i64
  %11 = ptrtoint ptr %9 to i64
  %12 = sub i64 %10, %11
  %13 = sdiv exact i64 %12, 208
  ret i64 %13
}

; Function Attrs: inlinehint mustprogress uwtable
define linkonce_odr noundef zeroext i1 @_ZSteqIN7Imf_3_410IDManifest20ChannelGroupManifestESaIS2_EEbRKSt6vectorIT_T0_ES9_(ptr noundef nonnull align 8 dereferenceable(24) %0, ptr noundef nonnull align 8 dereferenceable(24) %1) #7 comdat {
  %3 = alloca ptr, align 8
  %4 = alloca ptr, align 8
  %5 = alloca %"class.__gnu_cxx::__normal_iterator.72", align 8
  %6 = alloca %"class.__gnu_cxx::__normal_iterator.72", align 8
  %7 = alloca %"class.__gnu_cxx::__normal_iterator.72", align 8
  store ptr %0, ptr %3, align 8, !tbaa !14
  store ptr %1, ptr %4, align 8, !tbaa !14
  %8 = load ptr, ptr %3, align 8, !tbaa !14
  %9 = call noundef i64 @_ZNKSt6vectorIN7Imf_3_410IDManifest20ChannelGroupManifestESaIS2_EE4sizeEv(ptr noundef nonnull align 8 dereferenceable(24) %8) #3
  %10 = load ptr, ptr %4, align 8, !tbaa !14
  %11 = call noundef i64 @_ZNKSt6vectorIN7Imf_3_410IDManifest20ChannelGroupManifestESaIS2_EE4sizeEv(ptr noundef nonnull align 8 dereferenceable(24) %10) #3
  %12 = icmp eq i64 %9, %11
  br i1 %12, label %13, label %30

13:                                               ; preds = %2
  %14 = load ptr, ptr %3, align 8, !tbaa !14
  %15 = call ptr @_ZNKSt6vectorIN7Imf_3_410IDManifest20ChannelGroupManifestESaIS2_EE5beginEv(ptr noundef nonnull align 8 dereferenceable(24) %14) #3
  %16 = getelementptr inbounds nuw %"class.__gnu_cxx::__normal_iterator.72", ptr %5, i32 0, i32 0
  store ptr %15, ptr %16, align 8
  %17 = load ptr, ptr %3, align 8, !tbaa !14
  %18 = call ptr @_ZNKSt6vectorIN7Imf_3_410IDManifest20ChannelGroupManifestESaIS2_EE3endEv(ptr noundef nonnull align 8 dereferenceable(24) %17) #3
  %19 = getelementptr inbounds nuw %"class.__gnu_cxx::__normal_iterator.72", ptr %6, i32 0, i32 0
  store ptr %18, ptr %19, align 8
  %20 = load ptr, ptr %4, align 8, !tbaa !14
  %21 = call ptr @_ZNKSt6vectorIN7Imf_3_410IDManifest20ChannelGroupManifestESaIS2_EE5beginEv(ptr noundef nonnull align 8 dereferenceable(24) %20) #3
  %22 = getelementptr inbounds nuw %"class.__gnu_cxx::__normal_iterator.72", ptr %7, i32 0, i32 0
  store ptr %21, ptr %22, align 8
  %23 = getelementptr inbounds nuw %"class.__gnu_cxx::__normal_iterator.72", ptr %5, i32 0, i32 0
  %24 = load ptr, ptr %23, align 8
  %25 = getelementptr inbounds nuw %"class.__gnu_cxx::__normal_iterator.72", ptr %6, i32 0, i32 0
  %26 = load ptr, ptr %25, align 8
  %27 = getelementptr inbounds nuw %"class.__gnu_cxx::__normal_iterator.72", ptr %7, i32 0, i32 0
  %28 = load ptr, ptr %27, align 8
  %29 = call noundef zeroext i1 @_ZSt5equalIN9__gnu_cxx17__normal_iteratorIPKN7Imf_3_410IDManifest20ChannelGroupManifestESt6vectorIS4_SaIS4_EEEESA_EbT_SB_T0_(ptr %24, ptr %26, ptr %28)
  br label %30

30:                                               ; preds = %13, %2
  %31 = phi i1 [ false, %2 ], [ %29, %13 ]
  ret i1 %31
}

; Function Attrs: mustprogress uwtable
define noundef zeroext i1 @_ZNK7Imf_3_410IDManifesteqERKS0_(ptr noundef nonnull align 8 dereferenceable(24) %0, ptr noundef nonnull align 8 dereferenceable(24) %1) #6 align 2 {
  %3 = alloca ptr, align 8
  %4 = alloca ptr, align 8
  store ptr %0, ptr %3, align 8, !tbaa !12
  store ptr %1, ptr %4, align 8, !tbaa !12
  %5 = load ptr, ptr %3, align 8
  %6 = load ptr, ptr %4, align 8, !tbaa !12
  %7 = getelementptr inbounds nuw %"class.Imf_3_4::IDManifest", ptr %6, i32 0, i32 0
  %8 = getelementptr inbounds nuw %"class.Imf_3_4::IDManifest", ptr %5, i32 0, i32 0
  %9 = call noundef zeroext i1 @_ZSteqIN7Imf_3_410IDManifest20ChannelGroupManifestESaIS2_EEbRKSt6vectorIT_T0_ES9_(ptr noundef nonnull align 8 dereferenceable(24) %7, ptr noundef nonnull align 8 dereferenceable(24) %8)
  ret i1 %9
}